; Function Attrs: nounwind uwtable
define dso_local i64 @ACLGetCommandID(ptr noundef %0) local_unnamed_addr #0 {
  %2 = alloca ptr, align 8
  %3 = tail call ptr @sdsdup(ptr noundef %0) #25
  tail call void @sdstolower(ptr noundef %3) #25
  %4 = load ptr, ptr @commandId, align 8, !tbaa !87
  %5 = icmp eq ptr %4, null
  br i1 %5, label %6, label %8

6:                                                ; preds = %1
  %7 = tail call ptr @raxNew() #25
  store ptr %7, ptr @commandId, align 8, !tbaa !87
  br label %8

8:                                                ; preds = %6, %1
  %9 = phi ptr [ %7, %6 ], [ %4, %1 ]
  call void @llvm.lifetime.start.p0(i64 8, ptr nonnull %2) #25
  %10 = getelementptr inbounds i8, ptr %3, i64 -1
  %11 = load i8, ptr %10, align 1, !tbaa !19
  %12 = zext i8 %11 to i32
  %13 = and i32 %12, 7
  switch i32 %13, label %sdslen.exit [
    i32 0, label %14
    i32 1, label %17
    i32 2, label %21
    i32 3, label %25
    i32 4, label %29
  ]

14:                                               ; preds = %8
  %15 = lshr i32 %12, 3
  %16 = zext nneg i32 %15 to i64
  br label %sdslen.exit

17:                                               ; preds = %8
  %18 = getelementptr inbounds i8, ptr %3, i64 -3
  %19 = load i8, ptr %18, align 1, !tbaa !19
  %20 = zext i8 %19 to i64
  br label %sdslen.exit

21:                                               ; preds = %8
  %22 = getelementptr inbounds i8, ptr %3, i64 -5
  %23 = load i16, ptr %22, align 1, !tbaa !26
  %24 = zext i16 %23 to i64
  br label %sdslen.exit

25:                                               ; preds = %8
  %26 = getelementptr inbounds i8, ptr %3, i64 -9
  %27 = load i32, ptr %26, align 1, !tbaa !102
  %28 = zext i32 %27 to i64
  br label %sdslen.exit

29:                                               ; preds = %8
  %30 = getelementptr inbounds i8, ptr %3, i64 -17
  %31 = load i64, ptr %30, align 1, !tbaa !5
  br label %sdslen.exit

sdslen.exit:                                      ; preds = %8, %14, %17, %21, %25, %29
  %.0.i = phi i64 [ %31, %29 ], [ %28, %25 ], [ %24, %21 ], [ %20, %17 ], [ %16, %14 ], [ 0, %8 ]
  %32 = call i32 @raxFind(ptr noundef %9, ptr noundef nonnull %3, i64 noundef %.0.i, ptr noundef nonnull %2) #25
  %.not = icmp eq i32 %32, 0
  br i1 %.not, label %36, label %33

33:                                               ; preds = %sdslen.exit
  call void @sdsfree(ptr noundef nonnull %3) #25
  %34 = load ptr, ptr %2, align 8, !tbaa !143
  %35 = ptrtoint ptr %34 to i64
  br label %45

36:                                               ; preds = %sdslen.exit
  %37 = load ptr, ptr @commandId, align 8, !tbaa !87
  %38 = call i64 @strlen(ptr noundef nonnull dereferenceable(1) %3) #29
  %39 = load i64, ptr @nextid, align 8, !tbaa !5
  %40 = inttoptr i64 %39 to ptr
  %41 = call i32 @raxInsert(ptr noundef %37, ptr noundef nonnull %3, i64 noundef %38, ptr noundef %40, ptr noundef null) #25
  call void @sdsfree(ptr noundef nonnull %3) #25
  %42 = load i64, ptr @nextid, align 8, !tbaa !5
  %43 = add i64 %42, 1
  %44 = icmp eq i64 %43, 1023
  %spec.select = select i1 %44, i64 1024, i64 %43
  store i64 %spec.select, ptr @nextid, align 8, !tbaa !5
  br label %45

45:                                               ; preds = %36, %33
  %.0 = phi i64 [ %35, %33 ], [ %42, %36 ]
  call void @llvm.lifetime.end.p0(i64 8, ptr nonnull %2) #25
  ret i64 %.0
}